; Function Attrs: nounwind sspstrong uwtable
define dso_local void @riscv_trigger_realize(ptr noundef %env) local_unnamed_addr #0 {
entry:
  %itrigger_timer = getelementptr inbounds nuw i8, ptr %env, i64 8440
  %call.i.i.i = tail call noalias dereferenceable_or_null(48) ptr @g_malloc0_n(i64 noundef 1, i64 noundef 48) #9
  tail call void @timer_init_full(ptr noundef %call.i.i.i, ptr noundef null, i32 noundef 1, i32 noundef 1, i32 noundef 0, ptr noundef nonnull @riscv_itrigger_timer_cb, ptr noundef %env) #8
  store ptr %call.i.i.i, ptr %itrigger_timer, align 8
  %call.i.i.i.c = tail call noalias dereferenceable_or_null(48) ptr @g_malloc0_n(i64 noundef 1, i64 noundef 48) #9
  tail call void @timer_init_full(ptr noundef %call.i.i.i.c, ptr noundef null, i32 noundef 1, i32 noundef 1, i32 noundef 0, ptr noundef nonnull @riscv_itrigger_timer_cb, ptr noundef %env) #8
  %arrayidx.c = getelementptr i8, ptr %env, i64 8448
  store ptr %call.i.i.i.c, ptr %arrayidx.c, align 8
  ret void
}